; ModuleID = '57/2284.c'
source_filename = "57/2284.c"
target datalayout = "e-m:e-p270:32:32-p271:32:32-p272:64:64-i64:64-f80:128-n8:16:32:64-S128"
target triple = "x86_64-pc-linux-gnu"

@.str = private unnamed_addr constant [3 x i8] c"%d\00", align 1
@.str.1 = private unnamed_addr constant [3 x i8] c"%s\00", align 1
@.str.2 = private unnamed_addr constant [4 x i8] c"%s\0A\00", align 1

; Function Attrs: noinline nounwind uwtable
define dso_local i32 @main() #0 {
  %1 = alloca i32, align 4
  %2 = alloca i32, align 4
  %3 = alloca [1000 x i8], align 16
  %4 = alloca i32, align 4
  %5 = alloca i32, align 4
  store i32 0, i32* %1, align 4
  %6 = call i32 (i8*, ...) @__isoc99_scanf(i8* getelementptr inbounds ([3 x i8], [3 x i8]* @.str, i64 0, i64 0), i32* %2)
  store i32 0, i32* %4, align 4
  br label %7

7:                                                ; preds = %76, %0
  %8 = load i32, i32* %4, align 4
  %9 = load i32, i32* %2, align 4
  %10 = icmp slt i32 %8, %9
  br i1 %10, label %11, label %79

11:                                               ; preds = %7
  %12 = getelementptr inbounds [1000 x i8], [1000 x i8]* %3, i64 0, i64 0
  %13 = call i32 (i8*, ...) @__isoc99_scanf(i8* getelementptr inbounds ([3 x i8], [3 x i8]* @.str.1, i64 0, i64 0), i8* %12)
  %14 = getelementptr inbounds [1000 x i8], [1000 x i8]* %3, i64 0, i64 0
  %15 = call i64 @strlen(i8* %14) #3
  %16 = trunc i64 %15 to i32
  store i32 %16, i32* %5, align 4
  %17 = load i32, i32* %5, align 4
  %18 = sub nsw i32 %17, 1
  %19 = sext i32 %18 to i64
  %20 = getelementptr inbounds [1000 x i8], [1000 x i8]* %3, i64 0, i64 %19
  %21 = load i8, i8* %20, align 1
  %22 = sext i8 %21 to i32
  switch i32 %22, label %73 [
    i32 114, label %23
    i32 121, label %37
    i32 103, label %51
  ]

23:                                               ; preds = %11
  %24 = load i32, i32* %5, align 4
  %25 = sub nsw i32 %24, 2
  %26 = sext i32 %25 to i64
  %27 = getelementptr inbounds [1000 x i8], [1000 x i8]* %3, i64 0, i64 %26
  %28 = load i8, i8* %27, align 1
  %29 = sext i8 %28 to i32
  %30 = icmp eq i32 %29, 101
  br i1 %30, label %31, label %36

31:                                               ; preds = %23
  %32 = load i32, i32* %5, align 4
  %33 = sub nsw i32 %32, 2
  %34 = sext i32 %33 to i64
  %35 = getelementptr inbounds [1000 x i8], [1000 x i8]* %3, i64 0, i64 %34
  store i8 0, i8* %35, align 1
  br label %36

36:                                               ; preds = %31, %23
  br label %73

37:                                               ; preds = %11
  %38 = load i32, i32* %5, align 4
  %39 = sub nsw i32 %38, 2
  %40 = sext i32 %39 to i64
  %41 = getelementptr inbounds [1000 x i8], [1000 x i8]* %3, i64 0, i64 %40
  %42 = load i8, i8* %41, align 1
  %43 = sext i8 %42 to i32
  %44 = icmp eq i32 %43, 108
  br i1 %44, label %45, label %50

45:                                               ; preds = %37
  %46 = load i32, i32* %5, align 4
  %47 = sub nsw i32 %46, 2
  %48 = sext i32 %47 to i64
  %49 = getelementptr inbounds [1000 x i8], [1000 x i8]* %3, i64 0, i64 %48
  store i8 0, i8* %49, align 1
  br label %50

50:                                               ; preds = %45, %37
  br label %73

51:                                               ; preds = %11
  %52 = load i32, i32* %5, align 4
  %53 = sub nsw i32 %52, 2
  %54 = sext i32 %53 to i64
  %55 = getelementptr inbounds [1000 x i8], [1000 x i8]* %3, i64 0, i64 %54
  %56 = load i8, i8* %55, align 1
  %57 = sext i8 %56 to i32
  %58 = icmp eq i32 %57, 110
  br i1 %58, label %59, label %72

59:                                               ; preds = %51
  %60 = load i32, i32* %5, align 4
  %61 = sub nsw i32 %60, 3
  %62 = sext i32 %61 to i64
  %63 = getelementptr inbounds [1000 x i8], [1000 x i8]* %3, i64 0, i64 %62
  %64 = load i8, i8* %63, align 1
  %65 = sext i8 %64 to i32
  %66 = icmp eq i32 %65, 105
  br i1 %66, label %67, label %72

67:                                               ; preds = %59
  %68 = load i32, i32* %5, align 4
  %69 = sub nsw i32 %68, 3
  %70 = sext i32 %69 to i64
  %71 = getelementptr inbounds [1000 x i8], [1000 x i8]* %3, i64 0, i64 %70
  store i8 0, i8* %71, align 1
  br label %72

72:                                               ; preds = %67, %59, %51
  br label %73

73:                                               ; preds = %11, %72, %50, %36
  %74 = getelementptr inbounds [1000 x i8], [1000 x i8]* %3, i64 0, i64 0
  %75 = call i32 (i8*, ...) @printf(i8* getelementptr inbounds ([4 x i8], [4 x i8]* @.str.2, i64 0, i64 0), i8* %74)
  br label %76

76:                                               ; preds = %73
  %77 = load i32, i32* %4, align 4
  %78 = add nsw i32 %77, 1
  store i32 %78, i32* %4, align 4
  br label %7

79:                                               ; preds = %7
  ret i32 0
}

declare dso_local i32 @__isoc99_scanf(i8*, ...) #1

; Function Attrs: nounwind readonly
declare dso_local i64 @strlen(i8*) #2

declare dso_local i32 @printf(i8*, ...) #1


!llvm.module.flags = !{!0}
!llvm.ident = !{!1}

!0 = !{i32 1, !"wchar_size", i32 4}
!1 = !{!"clang version 10.0.0-4ubuntu1 "}
